; ModuleID = '2/374.c'
source_filename = "2/374.c"
target datalayout = "e-m:e-p270:32:32-p271:32:32-p272:64:64-i64:64-f80:128-n8:16:32:64-S128"
target triple = "x86_64-pc-linux-gnu"

@.str = private unnamed_addr constant [3 x i8] c"%d\00", align 1
@.str.1 = private unnamed_addr constant [3 x i8] c"%c\00", align 1
@.str.2 = private unnamed_addr constant [7 x i8] c"%c\0A%d\0A\00", align 1
@.str.3 = private unnamed_addr constant [4 x i8] c"%d\0A\00", align 1

; Function Attrs: noinline nounwind uwtable
define dso_local i32 @main() #0 {
  %1 = alloca i32, align 4
  %2 = alloca i32, align 4
  %3 = alloca [1020 x i32], align 16
  %4 = alloca i32, align 4
  %5 = alloca i8, align 1
  %6 = alloca [27 x i32], align 16
  %7 = alloca [27 x [1000 x i32]], align 16
  %8 = alloca i32, align 4
  %9 = alloca i32, align 4
  store i32 0, i32* %1, align 4
  %10 = call i32 (i8*, ...) @__isoc99_scanf(i8* getelementptr inbounds ([3 x i8], [3 x i8]* @.str, i64 0, i64 0), i32* %2)
  %11 = bitcast [27 x i32]* %6 to i8*
  call void @llvm.memset.p0i8.i64(i8* align 16 %11, i8 0, i64 108, i1 false)
  %12 = bitcast [27 x [1000 x i32]]* %7 to i8*
  call void @llvm.memset.p0i8.i64(i8* align 16 %12, i8 0, i64 108000, i1 false)
  store i32 1, i32* %4, align 4
  br label %13

13:                                               ; preds = %46, %0
  %14 = load i32, i32* %4, align 4
  %15 = load i32, i32* %2, align 4
  %16 = icmp sle i32 %14, %15
  br i1 %16, label %17, label %49

17:                                               ; preds = %13
  %18 = load i32, i32* %4, align 4
  %19 = sext i32 %18 to i64
  %20 = getelementptr inbounds [1020 x i32], [1020 x i32]* %3, i64 0, i64 %19
  %21 = call i32 (i8*, ...) @__isoc99_scanf(i8* getelementptr inbounds ([3 x i8], [3 x i8]* @.str, i64 0, i64 0), i32* %20)
  %22 = call i32 @getchar()
  br label %23

23:                                               ; preds = %29, %17
  %24 = call i32 (i8*, ...) @__isoc99_scanf(i8* getelementptr inbounds ([3 x i8], [3 x i8]* @.str.1, i64 0, i64 0), i8* %5)
  %25 = load i8, i8* %5, align 1
  %26 = sext i8 %25 to i32
  %27 = icmp eq i32 %26, 10
  br i1 %27, label %28, label %29

28:                                               ; preds = %23
  br label %45

29:                                               ; preds = %23
  %30 = load i8, i8* %5, align 1
  %31 = sext i8 %30 to i32
  %32 = sub nsw i32 %31, 64
  %33 = sext i32 %32 to i64
  %34 = getelementptr inbounds [27 x i32], [27 x i32]* %6, i64 0, i64 %33
  %35 = load i32, i32* %34, align 4
  %36 = add nsw i32 %35, 1
  store i32 %36, i32* %34, align 4
  %37 = load i8, i8* %5, align 1
  %38 = sext i8 %37 to i32
  %39 = sub nsw i32 %38, 64
  %40 = sext i32 %39 to i64
  %41 = getelementptr inbounds [27 x [1000 x i32]], [27 x [1000 x i32]]* %7, i64 0, i64 %40
  %42 = load i32, i32* %4, align 4
  %43 = sext i32 %42 to i64
  %44 = getelementptr inbounds [1000 x i32], [1000 x i32]* %41, i64 0, i64 %43
  store i32 1, i32* %44, align 4
  br label %23

45:                                               ; preds = %28
  br label %46

46:                                               ; preds = %45
  %47 = load i32, i32* %4, align 4
  %48 = add nsw i32 %47, 1
  store i32 %48, i32* %4, align 4
  br label %13

49:                                               ; preds = %13
  store i32 0, i32* %8, align 4
  store i32 1, i32* %4, align 4
  br label %50

50:                                               ; preds = %67, %49
  %51 = load i32, i32* %4, align 4
  %52 = icmp slt i32 %51, 27
  br i1 %52, label %53, label %70

53:                                               ; preds = %50
  %54 = load i32, i32* %4, align 4
  %55 = sext i32 %54 to i64
  %56 = getelementptr inbounds [27 x i32], [27 x i32]* %6, i64 0, i64 %55
  %57 = load i32, i32* %56, align 4
  %58 = load i32, i32* %8, align 4
  %59 = icmp sgt i32 %57, %58
  br i1 %59, label %60, label %66

60:                                               ; preds = %53
  %61 = load i32, i32* %4, align 4
  %62 = sext i32 %61 to i64
  %63 = getelementptr inbounds [27 x i32], [27 x i32]* %6, i64 0, i64 %62
  %64 = load i32, i32* %63, align 4
  store i32 %64, i32* %8, align 4
  %65 = load i32, i32* %4, align 4
  store i32 %65, i32* %9, align 4
  br label %66

66:                                               ; preds = %60, %53
  br label %67

67:                                               ; preds = %66
  %68 = load i32, i32* %4, align 4
  %69 = add nsw i32 %68, 1
  store i32 %69, i32* %4, align 4
  br label %50

70:                                               ; preds = %50
  %71 = load i32, i32* %9, align 4
  %72 = add nsw i32 %71, 64
  %73 = load i32, i32* %8, align 4
  %74 = call i32 (i8*, ...) @printf(i8* getelementptr inbounds ([7 x i8], [7 x i8]* @.str.2, i64 0, i64 0), i32 %72, i32 %73)
  store i32 0, i32* %4, align 4
  br label %75

75:                                               ; preds = %94, %70
  %76 = load i32, i32* %4, align 4
  %77 = icmp slt i32 %76, 1000
  br i1 %77, label %78, label %97

78:                                               ; preds = %75
  %79 = load i32, i32* %9, align 4
  %80 = sext i32 %79 to i64
  %81 = getelementptr inbounds [27 x [1000 x i32]], [27 x [1000 x i32]]* %7, i64 0, i64 %80
  %82 = load i32, i32* %4, align 4
  %83 = sext i32 %82 to i64
  %84 = getelementptr inbounds [1000 x i32], [1000 x i32]* %81, i64 0, i64 %83
  %85 = load i32, i32* %84, align 4
  %86 = icmp eq i32 %85, 1
  br i1 %86, label %87, label %93

87:                                               ; preds = %78
  %88 = load i32, i32* %4, align 4
  %89 = sext i32 %88 to i64
  %90 = getelementptr inbounds [1020 x i32], [1020 x i32]* %3, i64 0, i64 %89
  %91 = load i32, i32* %90, align 4
  %92 = call i32 (i8*, ...) @printf(i8* getelementptr inbounds ([4 x i8], [4 x i8]* @.str.3, i64 0, i64 0), i32 %91)
  br label %93

93:                                               ; preds = %87, %78
  br label %94

94:                                               ; preds = %93
  %95 = load i32, i32* %4, align 4
  %96 = add nsw i32 %95, 1
  store i32 %96, i32* %4, align 4
  br label %75

97:                                               ; preds = %75
  ret i32 0
}

declare dso_local i32 @__isoc99_scanf(i8*, ...) #1

; Function Attrs: argmemonly nounwind willreturn
declare void @llvm.memset.p0i8.i64(i8* nocapture writeonly, i8, i64, i1 immarg) #2

declare dso_local i32 @getchar() #1

declare dso_local i32 @printf(i8*, ...) #1


!llvm.module.flags = !{!0}
!llvm.ident = !{!1}

!0 = !{i32 1, !"wchar_size", i32 4}
!1 = !{!"clang version 10.0.0-4ubuntu1 "}
